; Function Attrs: mustprogress uwtable
define dso_local noundef zeroext i1 @_ZN10cmListFile11ParseStringEPKcS1_P11cmMessengerRK19cmListFileBacktrace(ptr noundef nonnull align 8 dereferenceable(24) %0, ptr noundef %1, ptr noundef %2, ptr noundef %3, ptr nocapture noundef nonnull readonly align 8 dereferenceable(16) %4) local_unnamed_addr #3 align 2 personality ptr @__gxx_personality_v0 {
  %6 = alloca %struct.cmListFileParser, align 8
  %7 = alloca %class.cmListFileBacktrace, align 8
  %8 = load ptr, ptr %4, align 8
  store ptr %8, ptr %7, align 8
  %9 = getelementptr inbounds i8, ptr %7, i64 8
  %10 = getelementptr inbounds i8, ptr %4, i64 8
  %11 = load ptr, ptr %10, align 8
  store ptr %11, ptr %9, align 8
  %.not.i.i.i.i.i = icmp eq ptr %11, null
  br i1 %.not.i.i.i.i.i, label %_ZN19cmListFileBacktraceC2ERKS_.exit, label %12

12:                                               ; preds = %5
  %13 = getelementptr inbounds i8, ptr %11, i64 8
  %14 = load i8, ptr @__libc_single_threaded, align 1
  %.not.i.i.i.i.i.i = icmp eq i8 %14, 0
  br i1 %.not.i.i.i.i.i.i, label %18, label %15

15:                                               ; preds = %12
  %16 = load i32, ptr %13, align 4
  %17 = add nsw i32 %16, 1
  store i32 %17, ptr %13, align 4
  br label %_ZN19cmListFileBacktraceC2ERKS_.exit

18:                                               ; preds = %12
  %19 = atomicrmw volatile add ptr %13, i32 1 acq_rel, align 4
  %.pre = load ptr, ptr %7, align 8
  %.pre11 = load ptr, ptr %9, align 8
  br label %_ZN19cmListFileBacktraceC2ERKS_.exit

_ZN19cmListFileBacktraceC2ERKS_.exit:             ; preds = %5, %15, %18
  %20 = phi ptr [ null, %5 ], [ %11, %15 ], [ %.pre11, %18 ]
  %21 = phi ptr [ %8, %5 ], [ %8, %15 ], [ %.pre, %18 ]
  store ptr %0, ptr %6, align 8
  %22 = getelementptr inbounds i8, ptr %6, i64 8
  store ptr %21, ptr %22, align 8
  %23 = getelementptr inbounds i8, ptr %6, i64 16
  store ptr null, ptr %9, align 8
  store ptr %20, ptr %23, align 8
  store ptr null, ptr %7, align 8
  %24 = getelementptr inbounds i8, ptr %6, i64 24
  store ptr %3, ptr %24, align 8
  %25 = getelementptr inbounds i8, ptr %6, i64 32
  store ptr null, ptr %25, align 8
  %26 = invoke ptr @cmListFileLexer_New()
          to label %_ZN19cmListFileBacktraceD2Ev.exit unwind label %.body

.body:                                            ; preds = %_ZN19cmListFileBacktraceC2ERKS_.exit
  %27 = landingpad { ptr, i32 }
          cleanup
  call void @_ZN19cmListFileBacktraceD2Ev(ptr noundef nonnull align 8 dereferenceable(16) %22) #17
  call void @_ZN19cmListFileBacktraceD2Ev(ptr noundef nonnull align 8 dereferenceable(16) %7) #17
  br label %35

_ZN19cmListFileBacktraceD2Ev.exit:                ; preds = %_ZN19cmListFileBacktraceC2ERKS_.exit
  %28 = getelementptr inbounds i8, ptr %6, i64 40
  store ptr %26, ptr %28, align 8
  %29 = getelementptr inbounds i8, ptr %6, i64 48
  call void @_ZNSt7__cxx1112basic_stringIcSt11char_traitsIcESaIcEEC1Ev(ptr noundef nonnull align 8 dereferenceable(32) %29) #17
  %30 = getelementptr inbounds i8, ptr %6, i64 96
  call void @llvm.memset.p0.i64(ptr noundef nonnull align 8 dereferenceable(24) %30, i8 0, i64 24, i1 false)
  %31 = invoke noundef zeroext i1 @_ZN16cmListFileParser11ParseStringEPKcS1_(ptr noundef nonnull align 8 dereferenceable(124) %6, ptr noundef %1, ptr noundef %2)
          to label %32 unwind label %33

32:                                               ; preds = %_ZN19cmListFileBacktraceD2Ev.exit
  call void @_ZN16cmListFileParserD2Ev(ptr noundef nonnull align 8 dereferenceable(124) %6) #17
  ret i1 %31

33:                                               ; preds = %_ZN19cmListFileBacktraceD2Ev.exit
  %34 = landingpad { ptr, i32 }
          cleanup
  call void @_ZN16cmListFileParserD2Ev(ptr noundef nonnull align 8 dereferenceable(124) %6) #17
  br label %35

35:                                               ; preds = %33, %.body
  %.pn = phi { ptr, i32 } [ %34, %33 ], [ %27, %.body ]
  resume { ptr, i32 } %.pn
}